target datalayout = "e-m:e-p270:32:32-p271:32:32-p272:64:64-i64:64-i128:128-f80:128-n8:16:32:64-S128"
target triple = "x86_64-pc-linux-gnu"

%"class.boost::detail::shared_count" = type { ptr }
%"class.boost::shared_ptr" = type { ptr, %"class.boost::detail::shared_count" }
%"class.boost::thread" = type { %"class.boost::shared_ptr" }
%"class.boost::detail::sp_counted_base" = type { ptr, i32, i32 }

; Function Attrs: inlinehint mustprogress nounwind uwtable
define linkonce_odr hidden void @_ZN5boost6detail16atomic_incrementEPj(ptr noundef %0) #1 comdat {
  %2 = alloca ptr, align 8
  %3 = alloca i32, align 4
  %4 = alloca i32, align 4
  store ptr %0, ptr %2, align 8, !tbaa !3
  %5 = load ptr, ptr %2, align 8, !tbaa !3
  store i32 1, ptr %3, align 4, !tbaa !7
  %6 = load i32, ptr %3, align 4
  %7 = atomicrmw add ptr %5, i32 %6 monotonic, align 4
  store i32 %7, ptr %4, align 4
  ret void
}

; Function Attrs: mustprogress uwtable
define linkonce_odr hidden void @_ZN5boost6detail15sp_counted_base12weak_releaseEv(ptr noundef nonnull align 8 dereferenceable(16) %0) #5 comdat align 2 {
  %2 = alloca ptr, align 8
  store ptr %0, ptr %2, align 8, !tbaa !3
  %3 = load ptr, ptr %2, align 8
  %4 = getelementptr inbounds nuw %"class.boost::detail::sp_counted_base", ptr %3, i32 0, i32 2
  %5 = call noundef i32 @_ZN5boost6detail16atomic_decrementEPj(ptr noundef %4)
  %6 = icmp eq i32 %5, 1
  br i1 %6, label %7, label %11

7:                                                ; preds = %1
  %8 = load ptr, ptr %3, align 8, !tbaa !14
  %9 = getelementptr inbounds ptr, ptr %8, i64 3
  %10 = load ptr, ptr %9, align 8
  call void %10(ptr noundef nonnull align 8 dereferenceable(16) %3)
  br label %11

11:                                               ; preds = %7, %1
  ret void
}

; Function Attrs: inlinehint mustprogress nounwind uwtable
define linkonce_odr hidden noundef i32 @_ZN5boost6detail16atomic_decrementEPj(ptr noundef %0) #1 comdat {
  %2 = alloca ptr, align 8
  %3 = alloca i32, align 4
  %4 = alloca i32, align 4
  store ptr %0, ptr %2, align 8, !tbaa !3
  %5 = load ptr, ptr %2, align 8, !tbaa !3
  store i32 1, ptr %3, align 4, !tbaa !7
  %6 = load i32, ptr %3, align 4
  %7 = atomicrmw sub ptr %5, i32 %6 acq_rel, align 4
  store i32 %7, ptr %4, align 4
  %8 = load i32, ptr %4, align 4, !tbaa !7
  ret i32 %8
}

; Function Attrs: mustprogress uwtable
define linkonce_odr hidden void @_ZN5boost6detail15sp_counted_base12add_ref_copyEv(ptr noundef nonnull align 8 dereferenceable(16) %0) #5 comdat align 2 {
  %2 = alloca ptr, align 8
  store ptr %0, ptr %2, align 8, !tbaa !3
  %3 = load ptr, ptr %2, align 8
  %4 = getelementptr inbounds nuw %"class.boost::detail::sp_counted_base", ptr %3, i32 0, i32 1
  call void @_ZN5boost6detail16atomic_incrementEPj(ptr noundef %4)
  ret void
}

; Function Attrs: mustprogress uwtable
define linkonce_odr hidden void @_ZN5boost6detail15sp_counted_base7releaseEv(ptr noundef nonnull align 8 dereferenceable(16) %0) #5 comdat align 2 {
  %2 = alloca ptr, align 8
  store ptr %0, ptr %2, align 8, !tbaa !3
  %3 = load ptr, ptr %2, align 8
  %4 = getelementptr inbounds nuw %"class.boost::detail::sp_counted_base", ptr %3, i32 0, i32 1
  %5 = call noundef i32 @_ZN5boost6detail16atomic_decrementEPj(ptr noundef %4)
  %6 = icmp eq i32 %5, 1
  br i1 %6, label %7, label %11

7:                                                ; preds = %1
  %8 = load ptr, ptr %3, align 8, !tbaa !14
  %9 = getelementptr inbounds ptr, ptr %8, i64 2
  %10 = load ptr, ptr %9, align 8
  call void %10(ptr noundef nonnull align 8 dereferenceable(16) %3)
  call void @_ZN5boost6detail15sp_counted_base12weak_releaseEv(ptr noundef nonnull align 8 dereferenceable(16) %3)
  br label %11

11:                                               ; preds = %7, %1
  ret void
}

; Function Attrs: mustprogress nounwind uwtable
define linkonce_odr hidden void @_ZN5boost6detail12shared_countC2ERKS1_(ptr noundef nonnull align 8 dereferenceable(8) %0, ptr noundef nonnull align 8 dereferenceable(8) %1) unnamed_addr #2 comdat align 2 personality ptr @__gxx_personality_v0 {
  %3 = alloca ptr, align 8
  %4 = alloca ptr, align 8
  store ptr %0, ptr %3, align 8, !tbaa !3
  store ptr %1, ptr %4, align 8, !tbaa !3
  %5 = load ptr, ptr %3, align 8
  %6 = getelementptr inbounds nuw %"class.boost::detail::shared_count", ptr %5, i32 0, i32 0
  %7 = load ptr, ptr %4, align 8, !tbaa !3
  %8 = getelementptr inbounds nuw %"class.boost::detail::shared_count", ptr %7, i32 0, i32 0
  %9 = load ptr, ptr %8, align 8, !tbaa !133
  store ptr %9, ptr %6, align 8, !tbaa !133
  %10 = getelementptr inbounds nuw %"class.boost::detail::shared_count", ptr %5, i32 0, i32 0
  %11 = load ptr, ptr %10, align 8, !tbaa !133
  %12 = icmp ne ptr %11, null
  br i1 %12, label %13, label %17

13:                                               ; preds = %2
  %14 = getelementptr inbounds nuw %"class.boost::detail::shared_count", ptr %5, i32 0, i32 0
  %15 = load ptr, ptr %14, align 8, !tbaa !133
  invoke void @_ZN5boost6detail15sp_counted_base12add_ref_copyEv(ptr noundef nonnull align 8 dereferenceable(16) %15)
          to label %16 unwind label %18

16:                                               ; preds = %13
  br label %17

17:                                               ; preds = %16, %2
  ret void

18:                                               ; preds = %13
  %19 = landingpad { ptr, i32 }
          catch ptr null
  %20 = extractvalue { ptr, i32 } %19, 0
  call void @__clang_call_terminate(ptr %20) #24
  unreachable
}

; Function Attrs: mustprogress nounwind uwtable
define linkonce_odr hidden void @_ZN5boost6detail12shared_countD2Ev(ptr noundef nonnull align 8 dereferenceable(8) %0) unnamed_addr #2 comdat align 2 personality ptr @__gxx_personality_v0 {
  %2 = alloca ptr, align 8
  store ptr %0, ptr %2, align 8, !tbaa !3
  %3 = load ptr, ptr %2, align 8
  %4 = getelementptr inbounds nuw %"class.boost::detail::shared_count", ptr %3, i32 0, i32 0
  %5 = load ptr, ptr %4, align 8, !tbaa !133
  %6 = icmp ne ptr %5, null
  br i1 %6, label %7, label %11

7:                                                ; preds = %1
  %8 = getelementptr inbounds nuw %"class.boost::detail::shared_count", ptr %3, i32 0, i32 0
  %9 = load ptr, ptr %8, align 8, !tbaa !133
  invoke void @_ZN5boost6detail15sp_counted_base7releaseEv(ptr noundef nonnull align 8 dereferenceable(16) %9)
          to label %10 unwind label %12

10:                                               ; preds = %7
  br label %11

11:                                               ; preds = %10, %1
  ret void

12:                                               ; preds = %7
  %13 = landingpad { ptr, i32 }
          catch ptr null
  %14 = extractvalue { ptr, i32 } %13, 0
  call void @__clang_call_terminate(ptr %14) #24
  unreachable
}

; Function Attrs: mustprogress nounwind uwtable
define linkonce_odr hidden void @_ZN5boost10shared_ptrINS_6detail16thread_data_baseEEC2ERKS3_(ptr noundef nonnull align 8 dereferenceable(16) %0, ptr noundef nonnull align 8 dereferenceable(16) %1) unnamed_addr #2 comdat align 2 {
  %3 = alloca ptr, align 8
  %4 = alloca ptr, align 8
  store ptr %0, ptr %3, align 8, !tbaa !3
  store ptr %1, ptr %4, align 8, !tbaa !3
  %5 = load ptr, ptr %3, align 8
  %6 = getelementptr inbounds nuw %"class.boost::shared_ptr", ptr %5, i32 0, i32 0
  %7 = load ptr, ptr %4, align 8, !tbaa !3
  %8 = getelementptr inbounds nuw %"class.boost::shared_ptr", ptr %7, i32 0, i32 0
  %9 = load ptr, ptr %8, align 8, !tbaa !35
  store ptr %9, ptr %6, align 8, !tbaa !35
  %10 = getelementptr inbounds nuw %"class.boost::shared_ptr", ptr %5, i32 0, i32 1
  %11 = load ptr, ptr %4, align 8, !tbaa !3
  %12 = getelementptr inbounds nuw %"class.boost::shared_ptr", ptr %11, i32 0, i32 1
  call void @_ZN5boost6detail12shared_countC2ERKS1_(ptr noundef nonnull align 8 dereferenceable(8) %10, ptr noundef nonnull align 8 dereferenceable(8) %12) #11
  ret void
}

; Function Attrs: inlinehint mustprogress nounwind uwtable
define linkonce_odr hidden void @_ZN5boost10shared_ptrINS_6detail16thread_data_baseEED2Ev(ptr noundef nonnull align 8 dereferenceable(16) %0) unnamed_addr #1 comdat align 2 {
  %2 = alloca ptr, align 8
  store ptr %0, ptr %2, align 8, !tbaa !3
  %3 = load ptr, ptr %2, align 8
  %4 = getelementptr inbounds nuw %"class.boost::shared_ptr", ptr %3, i32 0, i32 1
  call void @_ZN5boost6detail12shared_countD2Ev(ptr noundef nonnull align 8 dereferenceable(8) %4) #11
  ret void
}

; Function Attrs: mustprogress nounwind uwtable
define linkonce_odr hidden noundef zeroext i1 @_ZNK5boost10shared_ptrINS_6detail16thread_data_baseEEcvbEv(ptr noundef nonnull align 8 dereferenceable(16) %0) #2 comdat align 2 {
  %2 = alloca ptr, align 8
  store ptr %0, ptr %2, align 8, !tbaa !3
  %3 = load ptr, ptr %2, align 8
  %4 = getelementptr inbounds nuw %"class.boost::shared_ptr", ptr %3, i32 0, i32 0
  %5 = load ptr, ptr %4, align 8, !tbaa !35
  %6 = icmp ne ptr %5, null
  ret i1 %6
}

; Function Attrs: mustprogress nounwind uwtable
define void @_ZNK5boost6thread15get_thread_infoEv(ptr dead_on_unwind noalias writable sret(%"class.boost::shared_ptr") align 8 %0, ptr noundef nonnull align 8 dereferenceable(16) %1) #2 align 2 {
  %3 = alloca ptr, align 8
  %4 = alloca ptr, align 8
  store ptr %0, ptr %3, align 8
  store ptr %1, ptr %4, align 8, !tbaa !3
  %5 = load ptr, ptr %4, align 8
  %6 = getelementptr inbounds nuw %"class.boost::thread", ptr %5, i32 0, i32 0
  call void @_ZN5boost10shared_ptrINS_6detail16thread_data_baseEEC2ERKS3_(ptr noundef nonnull align 8 dereferenceable(16) %0, ptr noundef nonnull align 8 dereferenceable(16) %6) #11
  ret void
}

; Function Attrs: mustprogress nounwind uwtable
define noundef zeroext i1 @_ZNK5boost6thread8joinableEv(ptr noundef nonnull align 8 dereferenceable(16) %0) #2 align 2 {
  %2 = alloca ptr, align 8
  %3 = alloca %"class.boost::shared_ptr", align 8
  store ptr %0, ptr %2, align 8, !tbaa !3
  %4 = load ptr, ptr %2, align 8
  call void @llvm.lifetime.start.p0(i64 16, ptr %3) #11
  call void @_ZNK5boost6thread15get_thread_infoEv(ptr dead_on_unwind writable sret(%"class.boost::shared_ptr") align 8 %3, ptr noundef nonnull align 8 dereferenceable(16) %4)
  %5 = call noundef zeroext i1 @_ZNK5boost10shared_ptrINS_6detail16thread_data_baseEEcvbEv(ptr noundef nonnull align 8 dereferenceable(16) %3) #11
  %6 = select i1 %5, i1 true, i1 false
  call void @_ZN5boost10shared_ptrINS_6detail16thread_data_baseEED2Ev(ptr noundef nonnull align 8 dereferenceable(16) %3) #11
  call void @llvm.lifetime.end.p0(i64 16, ptr %3) #11
  ret i1 %6
}