; Function Attrs: mustprogress nounwind uwtable
define noundef zeroext i1 @_ZNK5boost6thread8joinableEv(ptr nocapture noundef nonnull readonly align 8 dereferenceable(16) %0) local_unnamed_addr #5 align 2 personality ptr @__gxx_personality_v0 {
  %2 = load ptr, ptr %0, align 8, !tbaa !74, !noalias !97
  %3 = getelementptr inbounds nuw i8, ptr %0, i64 8
  %4 = load ptr, ptr %3, align 8, !tbaa !30, !noalias !97
  %.not.i.i.i = icmp eq ptr %4, null
  br i1 %.not.i.i.i, label %_ZN5boost10shared_ptrINS_6detail16thread_data_baseEED2Ev.exit, label %5

5:                                                ; preds = %1
  %6 = getelementptr inbounds nuw i8, ptr %4, i64 8
  %7 = atomicrmw add ptr %6, i32 1 monotonic, align 4, !noalias !97
  %8 = atomicrmw sub ptr %6, i32 1 acq_rel, align 4
  %9 = icmp eq i32 %8, 1
  br i1 %9, label %10, label %_ZN5boost10shared_ptrINS_6detail16thread_data_baseEED2Ev.exit

10:                                               ; preds = %5
  %11 = load ptr, ptr %4, align 8, !tbaa !17
  %12 = getelementptr inbounds i8, ptr %11, i64 16
  %13 = load ptr, ptr %12, align 8
  invoke void %13(ptr noundef nonnull align 8 dereferenceable(16) %4)
          to label %.noexc.i.i unwind label %21

.noexc.i.i:                                       ; preds = %10
  %14 = getelementptr inbounds nuw i8, ptr %4, i64 12
  %15 = atomicrmw sub ptr %14, i32 1 acq_rel, align 4
  %16 = icmp eq i32 %15, 1
  br i1 %16, label %17, label %_ZN5boost10shared_ptrINS_6detail16thread_data_baseEED2Ev.exit

17:                                               ; preds = %.noexc.i.i
  %18 = load ptr, ptr %4, align 8, !tbaa !17
  %19 = getelementptr inbounds i8, ptr %18, i64 24
  %20 = load ptr, ptr %19, align 8
  invoke void %20(ptr noundef nonnull align 8 dereferenceable(16) %4)
          to label %_ZN5boost10shared_ptrINS_6detail16thread_data_baseEED2Ev.exit unwind label %21

21:                                               ; preds = %17, %10
  %22 = landingpad { ptr, i32 }
          catch ptr null
  %23 = extractvalue { ptr, i32 } %22, 0
  tail call void @__clang_call_terminate(ptr %23) #34
  unreachable

_ZN5boost10shared_ptrINS_6detail16thread_data_baseEED2Ev.exit: ; preds = %1, %5, %.noexc.i.i, %17
  %24 = icmp ne ptr %2, null
  ret i1 %24
}